; Function Attrs: mustprogress nounwind willreturn uwtable
define noalias noundef ptr @hwloc_backend_distances_add_create(ptr noundef captures(none) %0, ptr noundef readonly captures(address_is_null) %1, i64 noundef %2, i64 noundef %3) local_unnamed_addr #8 {
  %.not = icmp eq i64 %3, 0
  br i1 %.not, label %7, label %5

5:                                                ; preds = %4
  %6 = tail call ptr @__errno_location() #30
  store i32 22, ptr %6, align 4, !tbaa !3
  br label %21

7:                                                ; preds = %4
  %8 = tail call noalias dereferenceable_or_null(88) ptr @calloc(i64 noundef 1, i64 noundef 88) #31
  %.not21 = icmp eq ptr %8, null
  br i1 %.not21, label %21, label %9

9:                                                ; preds = %7
  %.not22 = icmp eq ptr %1, null
  br i1 %.not22, label %12, label %10

10:                                               ; preds = %9
  %11 = tail call noalias ptr @strdup(ptr noundef nonnull %1) #27
  store ptr %11, ptr %8, align 8, !tbaa !43
  %.not23 = icmp eq ptr %11, null
  br i1 %.not23, label %20, label %12

12:                                               ; preds = %10, %9
  %13 = getelementptr inbounds nuw i8, ptr %8, i64 48
  store i64 %2, ptr %13, align 8, !tbaa !57
  %14 = getelementptr inbounds nuw i8, ptr %8, i64 56
  store i32 2, ptr %14, align 8, !tbaa !59
  %15 = getelementptr inbounds nuw i8, ptr %8, i64 12
  store i32 -1, ptr %15, align 4, !tbaa !56
  %16 = getelementptr inbounds nuw i8, ptr %0, i64 744
  %17 = load i32, ptr %16, align 8, !tbaa !50
  %18 = add i32 %17, 1
  store i32 %18, ptr %16, align 8, !tbaa !50
  %19 = getelementptr inbounds nuw i8, ptr %8, i64 8
  store i32 %17, ptr %19, align 8, !tbaa !58
  br label %21

20:                                               ; preds = %10
  tail call void @free(ptr noundef nonnull %8) #27
  br label %21

21:                                               ; preds = %5, %20, %7, %12
  %.0 = phi ptr [ %8, %12 ], [ null, %7 ], [ null, %20 ], [ null, %5 ]
  ret ptr %.0
}